target datalayout = "e-m:e-p270:32:32-p271:32:32-p272:64:64-i64:64-f80:128-n8:16:32:64-S128"
target triple = "x86_64-pc-linux-gnu"

@.str = private unnamed_addr constant [3 x i8] c"%d\00", align 1
@.str.1 = private unnamed_addr constant [2 x i8] c",\00", align 1

; Function Attrs: noinline nounwind uwtable
define dso_local void @main() #0 {
  %1 = alloca [300 x i32], align 16
  %2 = alloca i32, align 4
  %3 = alloca i32, align 4
  %4 = alloca i32, align 4
  %5 = alloca i32, align 4
  %6 = alloca [300 x double], align 16
  %7 = alloca double, align 8
  %8 = alloca double, align 8
  store i32 0, i32* %5, align 4
  %9 = call i32 (i8*, ...) @__isoc99_scanf(i8* getelementptr inbounds ([3 x i8], [3 x i8]* @.str, i64 0, i64 0), i32* %2)
  store i32 0, i32* %3, align 4
  br label %10

10:                                               ; preds = %25, %0
  %11 = load i32, i32* %3, align 4
  %12 = load i32, i32* %2, align 4
  %13 = icmp slt i32 %11, %12
  br i1 %13, label %14, label %28

14:                                               ; preds = %10
  %15 = load i32, i32* %3, align 4
  %16 = sext i32 %15 to i64
  %17 = getelementptr inbounds [300 x i32], [300 x i32]* %1, i64 0, i64 %16
  %18 = call i32 (i8*, ...) @__isoc99_scanf(i8* getelementptr inbounds ([3 x i8], [3 x i8]* @.str, i64 0, i64 0), i32* %17)
  %19 = load i32, i32* %5, align 4
  %20 = load i32, i32* %3, align 4
  %21 = sext i32 %20 to i64
  %22 = getelementptr inbounds [300 x i32], [300 x i32]* %1, i64 0, i64 %21
  %23 = load i32, i32* %22, align 4
  %24 = add nsw i32 %19, %23
  store i32 %24, i32* %5, align 4
  br label %25

25:                                               ; preds = %14
  %26 = load i32, i32* %3, align 4
  %27 = add nsw i32 %26, 1
  store i32 %27, i32* %3, align 4
  br label %10

28:                                               ; preds = %10
  %29 = load i32, i32* %5, align 4
  %30 = sitofp i32 %29 to double
  %31 = load i32, i32* %2, align 4
  %32 = sitofp i32 %31 to double
  %33 = fdiv double %30, %32
  store double %33, double* %7, align 8
  store i32 0, i32* %3, align 4
  br label %34

34:                                               ; preds = %49, %28
  %35 = load i32, i32* %3, align 4
  %36 = load i32, i32* %2, align 4
  %37 = icmp slt i32 %35, %36
  br i1 %37, label %38, label %52

38:                                               ; preds = %34
  %39 = load i32, i32* %3, align 4
  %40 = sext i32 %39 to i64
  %41 = getelementptr inbounds [300 x i32], [300 x i32]* %1, i64 0, i64 %40
  %42 = load i32, i32* %41, align 4
  %43 = sitofp i32 %42 to double
  %44 = load double, double* %7, align 8
  %45 = fsub double %43, %44
  %46 = load i32, i32* %3, align 4
  %47 = sext i32 %46 to i64
  %48 = getelementptr inbounds [300 x double], [300 x double]* %6, i64 0, i64 %47
  store double %45, double* %48, align 8
  br label %49

49:                                               ; preds = %38
  %50 = load i32, i32* %3, align 4
  %51 = add nsw i32 %50, 1
  store i32 %51, i32* %3, align 4
  br label %34

52:                                               ; preds = %34
  store i32 0, i32* %3, align 4
  br label %53

53:                                               ; preds = %137, %52
  %54 = load i32, i32* %3, align 4
  %55 = load i32, i32* %2, align 4
  %56 = icmp slt i32 %54, %55
  br i1 %56, label %57, label %140

57:                                               ; preds = %53
  %58 = load i32, i32* %3, align 4
  %59 = add nsw i32 %58, 1
  store i32 %59, i32* %4, align 4
  br label %60

60:                                               ; preds = %133, %57
  %61 = load i32, i32* %4, align 4
  %62 = load i32, i32* %2, align 4
  %63 = icmp slt i32 %61, %62
  br i1 %63, label %64, label %136

64:                                               ; preds = %60
  %65 = load i32, i32* %3, align 4
  %66 = sext i32 %65 to i64
  %67 = getelementptr inbounds [300 x double], [300 x double]* %6, i64 0, i64 %66
  %68 = load double, double* %67, align 8
  %69 = call double @llvm.fabs.f64(double %68)
  %70 = load i32, i32* %4, align 4
  %71 = sext i32 %70 to i64
  %72 = getelementptr inbounds [300 x double], [300 x double]* %6, i64 0, i64 %71
  %73 = load double, double* %72, align 8
  %74 = call double @llvm.fabs.f64(double %73)
  %75 = fcmp olt double %69, %74
  br i1 %75, label %76, label %92

76:                                               ; preds = %64
  %77 = load i32, i32* %3, align 4
  %78 = sext i32 %77 to i64
  %79 = getelementptr inbounds [300 x double], [300 x double]* %6, i64 0, i64 %78
  %80 = load double, double* %79, align 8
  store double %80, double* %8, align 8
  %81 = load i32, i32* %4, align 4
  %82 = sext i32 %81 to i64
  %83 = getelementptr inbounds [300 x double], [300 x double]* %6, i64 0, i64 %82
  %84 = load double, double* %83, align 8
  %85 = load i32, i32* %3, align 4
  %86 = sext i32 %85 to i64
  %87 = getelementptr inbounds [300 x double], [300 x double]* %6, i64 0, i64 %86
  store double %84, double* %87, align 8
  %88 = load double, double* %8, align 8
  %89 = load i32, i32* %4, align 4
  %90 = sext i32 %89 to i64
  %91 = getelementptr inbounds [300 x double], [300 x double]* %6, i64 0, i64 %90
  store double %88, double* %91, align 8
  br label %132

92:                                               ; preds = %64
  %93 = load i32, i32* %3, align 4
  %94 = sext i32 %93 to i64
  %95 = getelementptr inbounds [300 x double], [300 x double]* %6, i64 0, i64 %94
  %96 = load double, double* %95, align 8
  %97 = call double @llvm.fabs.f64(double %96)
  %98 = load i32, i32* %4, align 4
  %99 = sext i32 %98 to i64
  %100 = getelementptr inbounds [300 x double], [300 x double]* %6, i64 0, i64 %99
  %101 = load double, double* %100, align 8
  %102 = call double @llvm.fabs.f64(double %101)
  %103 = fcmp oeq double %97, %102
  br i1 %103, label %104, label %131

104:                                              ; preds = %92
  %105 = load i32, i32* %3, align 4
  %106 = sext i32 %105 to i64
  %107 = getelementptr inbounds [300 x double], [300 x double]* %6, i64 0, i64 %106
  %108 = load double, double* %107, align 8
  %109 = load i32, i32* %4, align 4
  %110 = sext i32 %109 to i64
  %111 = getelementptr inbounds [300 x double], [300 x double]* %6, i64 0, i64 %110
  %112 = load double, double* %111, align 8
  %113 = fcmp ogt double %108, %112
  br i1 %113, label %114, label %130

114:                                              ; preds = %104
  %115 = load i32, i32* %3, align 4
  %116 = sext i32 %115 to i64
  %117 = getelementptr inbounds [300 x double], [300 x double]* %6, i64 0, i64 %116
  %118 = load double, double* %117, align 8
  store double %118, double* %8, align 8
  %119 = load i32, i32* %4, align 4
  %120 = sext i32 %119 to i64
  %121 = getelementptr inbounds [300 x double], [300 x double]* %6, i64 0, i64 %120
  %122 = load double, double* %121, align 8
  %123 = load i32, i32* %3, align 4
  %124 = sext i32 %123 to i64
  %125 = getelementptr inbounds [300 x double], [300 x double]* %6, i64 0, i64 %124
  store double %122, double* %125, align 8
  %126 = load double, double* %8, align 8
  %127 = load i32, i32* %4, align 4
  %128 = sext i32 %127 to i64
  %129 = getelementptr inbounds [300 x double], [300 x double]* %6, i64 0, i64 %128
  store double %126, double* %129, align 8
  br label %130

130:                                              ; preds = %114, %104
  br label %131

131:                                              ; preds = %130, %92
  br label %132

132:                                              ; preds = %131, %76
  br label %133

133:                                              ; preds = %132
  %134 = load i32, i32* %4, align 4
  %135 = add nsw i32 %134, 1
  store i32 %135, i32* %4, align 4
  br label %60

136:                                              ; preds = %60
  br label %137

137:                                              ; preds = %136
  %138 = load i32, i32* %3, align 4
  %139 = add nsw i32 %138, 1
  store i32 %139, i32* %3, align 4
  br label %53

140:                                              ; preds = %53
  store i32 0, i32* %3, align 4
  br label %141

141:                                              ; preds = %156, %140
  %142 = load i32, i32* %3, align 4
  %143 = load i32, i32* %2, align 4
  %144 = icmp slt i32 %142, %143
  br i1 %144, label %145, label %159

145:                                              ; preds = %141
  %146 = load i32, i32* %3, align 4
  %147 = sext i32 %146 to i64
  %148 = getelementptr inbounds [300 x double], [300 x double]* %6, i64 0, i64 %147
  %149 = load double, double* %148, align 8
  %150 = load double, double* %7, align 8
  %151 = fadd double %149, %150
  %152 = fptosi double %151 to i32
  %153 = load i32, i32* %3, align 4
  %154 = sext i32 %153 to i64
  %155 = getelementptr inbounds [300 x i32], [300 x i32]* %1, i64 0, i64 %154
  store i32 %152, i32* %155, align 4
  br label %156

156:                                              ; preds = %145
  %157 = load i32, i32* %3, align 4
  %158 = add nsw i32 %157, 1
  store i32 %158, i32* %3, align 4
  br label %141

159:                                              ; preds = %141
  store i32 0, i32* %4, align 4
  store i32 0, i32* %3, align 4
  br label %160

160:                                              ; preds = %175, %159
  %161 = load i32, i32* %3, align 4
  %162 = sext i32 %161 to i64
  %163 = getelementptr inbounds [300 x double], [300 x double]* %6, i64 0, i64 %162
  %164 = load double, double* %163, align 8
  %165 = call double @llvm.fabs.f64(double %164)
  %166 = getelementptr inbounds [300 x double], [300 x double]* %6, i64 0, i64 0
  %167 = load double, double* %166, align 16
  %168 = call double @llvm.fabs.f64(double %167)
  %169 = fcmp oeq double %165, %168
  br i1 %169, label %170, label %185

170:                                              ; preds = %160
  %171 = load i32, i32* %4, align 4
  %172 = icmp sgt i32 %171, 0
  br i1 %172, label %173, label %175

173:                                              ; preds = %170
  %174 = call i32 (i8*, ...) @printf(i8* getelementptr inbounds ([2 x i8], [2 x i8]* @.str.1, i64 0, i64 0))
  br label %175

175:                                              ; preds = %173, %170
  %176 = load i32, i32* %3, align 4
  %177 = sext i32 %176 to i64
  %178 = getelementptr inbounds [300 x i32], [300 x i32]* %1, i64 0, i64 %177
  %179 = load i32, i32* %178, align 4
  %180 = call i32 (i8*, ...) @printf(i8* getelementptr inbounds ([3 x i8], [3 x i8]* @.str, i64 0, i64 0), i32 %179)
  %181 = load i32, i32* %4, align 4
  %182 = add nsw i32 %181, 1
  store i32 %182, i32* %4, align 4
  %183 = load i32, i32* %3, align 4
  %184 = add nsw i32 %183, 1
  store i32 %184, i32* %3, align 4
  br label %160

185:                                              ; preds = %160
  ret void
}